target datalayout = "e-m:e-p270:32:32-p271:32:32-p272:64:64-i64:64-i128:128-f80:128-n8:16:32:64-S128"
target triple = "x86_64-pc-linux-gnu"

%struct.jit_State = type { %struct.GCtrace, ptr, ptr, ptr, ptr, ptr, ptr, i32, i32, i32, i8, i8, %struct.IRType1, i8, %struct.FoldState, ptr, i32, i32, i32, i32, i32, i32, i32, [1 x i32], [5 x %union.TValue], [3 x %union.TValue], ptr, i32, i32, i32, i32, ptr, ptr, i32, i32, i8, ptr, i32, i32, i16, [101 x i16], [258 x i32], [15 x i32], [16 x ptr], [64 x %struct.HotPenalty], i32, [16 x %struct.BPropEntry], i32, %struct.ScEvEntry, ptr, i32, i32, i32, ptr, i32, i32, ptr, ptr, ptr, i64, i64, %union.TValue, ptr, i32, i32 }
%struct.GCtrace = type { %struct.GCRef, i8, i8, i16, i32, i32, %struct.GCRef, ptr, i32, i32, ptr, ptr, %struct.GCRef, %struct.MRef, i32, i32, ptr, i32, i16, i16, i16, i16, i16, i16, i16, i8, i8, i8, i8 }
%struct.GCRef = type { i64 }
%struct.MRef = type { i64 }
%struct.IRType1 = type { i8 }
%struct.FoldState = type { %union.IRIns, [2 x %union.IRIns], [2 x %union.IRIns] }
%union.IRIns = type { %struct.GCRef }
%struct.HotPenalty = type { %struct.MRef, i16, i16 }
%struct.BPropEntry = type { i16, i16, i32 }
%struct.ScEvEntry = type { %struct.MRef, i16, i16, i16, i16, %struct.IRType1, i8 }
%union.TValue = type { i64 }
%struct.lua_State = type { %struct.GCRef, i8, i8, i8, i8, %struct.MRef, %struct.GCRef, ptr, ptr, %struct.MRef, %struct.MRef, %struct.GCRef, %struct.GCRef, ptr, i32 }
%struct.GCfuncC = type { %struct.GCRef, i8, i8, i8, i8, %struct.GCRef, %struct.GCRef, %struct.MRef, ptr, [1 x %union.TValue] }
%struct.GCfuncL = type { %struct.GCRef, i8, i8, i8, i8, %struct.GCRef, %struct.GCRef, %struct.MRef, [1 x %struct.GCRef] }

; Function Attrs: nounwind uwtable
define hidden void @lj_trace_ins(ptr noundef %0, ptr noundef %1) #3 {
  %3 = alloca ptr, align 8
  %4 = alloca ptr, align 8
  store ptr %0, ptr %3, align 8, !tbaa !4
  store ptr %1, ptr %4, align 8, !tbaa !67
  %5 = load ptr, ptr %4, align 8, !tbaa !67
  %6 = load ptr, ptr %3, align 8, !tbaa !4
  %7 = getelementptr inbounds nuw %struct.jit_State, ptr %6, i32 0, i32 3
  store ptr %5, ptr %7, align 8, !tbaa !95
  %8 = load ptr, ptr %3, align 8, !tbaa !4
  %9 = getelementptr inbounds nuw %struct.jit_State, ptr %8, i32 0, i32 2
  %10 = load ptr, ptr %9, align 8, !tbaa !12
  %11 = getelementptr inbounds nuw %struct.lua_State, ptr %10, i32 0, i32 7
  %12 = load ptr, ptr %11, align 8, !tbaa !96
  %13 = getelementptr inbounds %union.TValue, ptr %12, i64 -2
  %14 = getelementptr inbounds nuw %struct.GCRef, ptr %13, i32 0, i32 0
  %15 = load i64, ptr %14, align 8, !tbaa !11
  %16 = and i64 %15, 140737488355327
  %17 = inttoptr i64 %16 to ptr
  %18 = load ptr, ptr %3, align 8, !tbaa !4
  %19 = getelementptr inbounds nuw %struct.jit_State, ptr %18, i32 0, i32 4
  store ptr %17, ptr %19, align 8, !tbaa !97
  %20 = load ptr, ptr %3, align 8, !tbaa !4
  %21 = getelementptr inbounds nuw %struct.jit_State, ptr %20, i32 0, i32 4
  %22 = load ptr, ptr %21, align 8, !tbaa !97
  %23 = getelementptr inbounds nuw %struct.GCfuncC, ptr %22, i32 0, i32 3
  %24 = load i8, ptr %23, align 2, !tbaa !11
  %25 = zext i8 %24 to i32
  %26 = icmp eq i32 %25, 0
  br i1 %26, label %27, label %36

27:                                               ; preds = %2
  %28 = load ptr, ptr %3, align 8, !tbaa !4
  %29 = getelementptr inbounds nuw %struct.jit_State, ptr %28, i32 0, i32 4
  %30 = load ptr, ptr %29, align 8, !tbaa !97
  %31 = getelementptr inbounds nuw %struct.GCfuncL, ptr %30, i32 0, i32 7
  %32 = getelementptr inbounds nuw %struct.MRef, ptr %31, i32 0, i32 0
  %33 = load i64, ptr %32, align 8, !tbaa !11
  %34 = inttoptr i64 %33 to ptr
  %35 = getelementptr inbounds i8, ptr %34, i64 -104
  br label %37

36:                                               ; preds = %2
  br label %37

37:                                               ; preds = %36, %27
  %38 = phi ptr [ %35, %27 ], [ null, %36 ]
  %39 = load ptr, ptr %3, align 8, !tbaa !4
  %40 = getelementptr inbounds nuw %struct.jit_State, ptr %39, i32 0, i32 5
  store ptr %38, ptr %40, align 8, !tbaa !98
  br label %41

41:                                               ; preds = %48, %37
  %42 = load ptr, ptr %3, align 8, !tbaa !4
  %43 = getelementptr inbounds nuw %struct.jit_State, ptr %42, i32 0, i32 2
  %44 = load ptr, ptr %43, align 8, !tbaa !12
  %45 = load ptr, ptr %3, align 8, !tbaa !4
  %46 = call i32 @lj_vm_cpcall(ptr noundef %44, ptr noundef null, ptr noundef %45, ptr noundef @trace_state)
  %47 = icmp ne i32 %46, 0
  br i1 %47, label %48, label %51

48:                                               ; preds = %41
  %49 = load ptr, ptr %3, align 8, !tbaa !4
  %50 = getelementptr inbounds nuw %struct.jit_State, ptr %49, i32 0, i32 17
  store i32 22, ptr %50, align 4, !tbaa !99
  br label %41, !llvm.loop !100

51:                                               ; preds = %41
  ret void
}