; Function Attrs: nounwind uwtable
define hidden void @lj_trace_ins(ptr noundef initializes((136, 160)) %0, ptr noundef %1) local_unnamed_addr #2 {
  %3 = getelementptr inbounds nuw i8, ptr %0, i64 136
  store ptr %1, ptr %3, align 8, !tbaa !83
  %4 = getelementptr inbounds nuw i8, ptr %0, i64 128
  %5 = load ptr, ptr %4, align 8, !tbaa !7
  %6 = getelementptr inbounds nuw i8, ptr %5, i64 32
  %7 = load ptr, ptr %6, align 8, !tbaa !84
  %8 = getelementptr inbounds i8, ptr %7, i64 -16
  %9 = load i64, ptr %8, align 8, !tbaa !4
  %10 = and i64 %9, 140737488355327
  %11 = inttoptr i64 %10 to ptr
  %12 = getelementptr inbounds nuw i8, ptr %0, i64 144
  store ptr %11, ptr %12, align 8, !tbaa !85
  %13 = getelementptr inbounds nuw i8, ptr %11, i64 10
  %14 = load i8, ptr %13, align 2, !tbaa !4
  %15 = icmp eq i8 %14, 0
  br i1 %15, label %16, label %21

16:                                               ; preds = %2
  %17 = getelementptr inbounds nuw i8, ptr %11, i64 32
  %18 = load i64, ptr %17, align 8, !tbaa !4
  %19 = inttoptr i64 %18 to ptr
  %20 = getelementptr inbounds i8, ptr %19, i64 -104
  br label %21

21:                                               ; preds = %2, %16
  %22 = phi ptr [ %20, %16 ], [ null, %2 ]
  %23 = getelementptr inbounds nuw i8, ptr %0, i64 152
  store ptr %22, ptr %23, align 8, !tbaa !86
  %24 = tail call i32 @lj_vm_cpcall(ptr noundef nonnull %5, ptr noundef null, ptr noundef nonnull %0, ptr noundef nonnull @trace_state) #14
  %.not10 = icmp eq i32 %24, 0
  br i1 %.not10, label %._crit_edge, label %.lr.ph

.lr.ph:                                           ; preds = %21
  %25 = getelementptr inbounds nuw i8, ptr %0, i64 236
  br label %26

26:                                               ; preds = %.lr.ph, %26
  store i32 22, ptr %25, align 4, !tbaa !87
  %27 = load ptr, ptr %4, align 8, !tbaa !7
  %28 = tail call i32 @lj_vm_cpcall(ptr noundef %27, ptr noundef null, ptr noundef nonnull %0, ptr noundef nonnull @trace_state) #14
  %.not = icmp eq i32 %28, 0
  br i1 %.not, label %._crit_edge, label %26, !llvm.loop !88

._crit_edge:                                      ; preds = %26, %21
  ret void
}